target datalayout = "e-m:e-p270:32:32-p271:32:32-p272:64:64-i64:64-i128:128-f80:128-n8:16:32:64-S128"
target triple = "x86_64-unknown-linux-gnu"

%"class.std::set.0" = type { %"class.std::_Rb_tree.1" }
%"class.std::_Rb_tree.1" = type { %"struct.std::_Rb_tree<QuantLib::Observer *, QuantLib::Observer *, std::_Identity<QuantLib::Observer *>, std::less<QuantLib::Observer *>>::_Rb_tree_impl" }
%"struct.std::_Rb_tree<QuantLib::Observer *, QuantLib::Observer *, std::_Identity<QuantLib::Observer *>, std::less<QuantLib::Observer *>>::_Rb_tree_impl" = type { [8 x i8], %"struct.std::_Rb_tree_header" }
%"struct.std::_Rb_tree_header" = type { %"struct.std::_Rb_tree_node_base", i64 }
%"struct.std::_Rb_tree_node_base" = type { i32, ptr, ptr, ptr }
%"class.std::set" = type { %"class.std::_Rb_tree" }
%"class.std::_Rb_tree" = type { %"struct.std::_Rb_tree<boost::shared_ptr<QuantLib::Observable>, boost::shared_ptr<QuantLib::Observable>, std::_Identity<boost::shared_ptr<QuantLib::Observable>>, std::less<boost::shared_ptr<QuantLib::Observable>>>::_Rb_tree_impl" }
%"struct.std::_Rb_tree<boost::shared_ptr<QuantLib::Observable>, boost::shared_ptr<QuantLib::Observable>, std::_Identity<boost::shared_ptr<QuantLib::Observable>>, std::less<boost::shared_ptr<QuantLib::Observable>>>::_Rb_tree_impl" = type { [8 x i8], %"struct.std::_Rb_tree_header" }
%"class.boost::detail::shared_count" = type { ptr }
%"class.QuantLib::Observable" = type { ptr, %"class.std::set.0" }
%"class.QuantLib::DayCounter" = type { %"class.boost::shared_ptr.18" }
%"class.boost::shared_ptr.18" = type { ptr, %"class.boost::detail::shared_count" }
%"class.boost::shared_ptr.20" = type { ptr, %"class.boost::detail::shared_count" }
%"class.QuantLib::Date" = type { i64 }
%"class.QuantLib::Observer" = type { ptr, %"class.std::set" }
%"class.QuantLib::TenorSwaptionVTS::TenorSwaptionSmileSection" = type { %"class.QuantLib::SmileSection.base", %"class.boost::shared_ptr.20", double, double, double, double, double, %"class.QuantLib::Observable", %"class.QuantLib::Observer" }
%"class.QuantLib::SmileSection.base" = type { ptr, i8, %"class.QuantLib::Date", %"class.QuantLib::Date", %"class.QuantLib::DayCounter", double, i32, double }

@.str.7 = private unnamed_addr constant [8 x i8] c"px != 0\00", align 1
@.str.8 = private unnamed_addr constant [102 x i8] c"generated/home/dtcxzyw/WorkSpace/SDK/vcpkg/installed/x64-linux/include/boost/smart_ptr/shared_ptr.hpp\00", align 1
@__PRETTY_FUNCTION__._ZNK5boost10shared_ptrIN8QuantLib12SmileSectionEEptEv = private unnamed_addr constant [141 x i8] c"typename boost::detail::sp_member_access<T>::type boost::shared_ptr<QuantLib::SmileSection>::operator->() const [T = QuantLib::SmileSection]\00", align 1

; Function Attrs: mustprogress uwtable
define linkonce_odr noundef ptr @_ZNK5boost10shared_ptrIN8QuantLib12SmileSectionEEptEv(ptr noundef nonnull align 8 dereferenceable(16) %this) #2 comdat align 2 {
entry:
  %this.addr = alloca ptr, align 8
  store ptr %this, ptr %this.addr, align 8, !tbaa !3
  %this1 = load ptr, ptr %this.addr, align 8
  %px = getelementptr inbounds nuw %"class.boost::shared_ptr.20", ptr %this1, i32 0, i32 0
  %0 = load ptr, ptr %px, align 8, !tbaa !41
  %cmp = icmp ne ptr %0, null
  %lnot = xor i1 %cmp, true
  %lnot2 = xor i1 %lnot, true
  %conv = zext i1 %lnot2 to i64
  %expval = call i64 @llvm.expect.i64(i64 %conv, i64 1)
  %tobool = icmp ne i64 %expval, 0
  br i1 %tobool, label %cond.true, label %cond.false

cond.true:                                        ; preds = %entry
  br label %cond.end

cond.false:                                       ; preds = %entry
  call void @_ZN5boost16assertion_failedEPKcS1_S1_l(ptr noundef @.str.7, ptr noundef @__PRETTY_FUNCTION__._ZNK5boost10shared_ptrIN8QuantLib12SmileSectionEEptEv, ptr noundef @.str.8, i64 noundef 784)
  br label %cond.end

cond.end:                                         ; preds = %cond.false, %cond.true
  %px3 = getelementptr inbounds nuw %"class.boost::shared_ptr.20", ptr %this1, i32 0, i32 0
  %1 = load ptr, ptr %px3, align 8, !tbaa !41
  ret ptr %1
}

; Function Attrs: mustprogress uwtable
define noundef double @_ZNK8QuantLib16TenorSwaptionVTS25TenorSwaptionSmileSection14volatilityImplEd(ptr noundef nonnull align 8 dereferenceable(128) %this, double noundef %strike) unnamed_addr #2 align 2 {
entry:
  %this.addr = alloca ptr, align 8
  %strike.addr = alloca double, align 8
  %strikeBase = alloca double, align 8
  %volBase = alloca double, align 8
  %volTarg = alloca double, align 8
  store ptr %this, ptr %this.addr, align 8, !tbaa !3
  store double %strike, ptr %strike.addr, align 8, !tbaa !14
  %this1 = load ptr, ptr %this.addr, align 8
  call void @llvm.lifetime.start.p0(i64 8, ptr %strikeBase) #15
  %0 = load double, ptr %strike.addr, align 8, !tbaa !14
  %swapRateTarg_ = getelementptr inbounds nuw %"class.QuantLib::TenorSwaptionVTS::TenorSwaptionSmileSection", ptr %this1, i32 0, i32 3
  %1 = load double, ptr %swapRateTarg_, align 8, !tbaa !30
  %lambda_ = getelementptr inbounds nuw %"class.QuantLib::TenorSwaptionVTS::TenorSwaptionSmileSection", ptr %this1, i32 0, i32 5
  %2 = load double, ptr %lambda_, align 8, !tbaa !37
  %add = fadd double 1.000000e+00, %2
  %swapRateBase_ = getelementptr inbounds nuw %"class.QuantLib::TenorSwaptionVTS::TenorSwaptionSmileSection", ptr %this1, i32 0, i32 2
  %3 = load double, ptr %swapRateBase_, align 8, !tbaa !21
  %neg = fneg double %add
  %4 = call double @llvm.fmuladd.f64(double %neg, double %3, double %1)
  %sub = fsub double %0, %4
  %lambda_2 = getelementptr inbounds nuw %"class.QuantLib::TenorSwaptionVTS::TenorSwaptionSmileSection", ptr %this1, i32 0, i32 5
  %5 = load double, ptr %lambda_2, align 8, !tbaa !37
  %add3 = fadd double 1.000000e+00, %5
  %div = fdiv double %sub, %add3
  %annuityScaling_ = getelementptr inbounds nuw %"class.QuantLib::TenorSwaptionVTS::TenorSwaptionSmileSection", ptr %this1, i32 0, i32 6
  %6 = load double, ptr %annuityScaling_, align 8, !tbaa !38
  %div4 = fdiv double %div, %6
  store double %div4, ptr %strikeBase, align 8, !tbaa !14
  call void @llvm.lifetime.start.p0(i64 8, ptr %volBase) #15
  %baseSmileSection_ = getelementptr inbounds nuw %"class.QuantLib::TenorSwaptionVTS::TenorSwaptionSmileSection", ptr %this1, i32 0, i32 1
  %call = call noundef ptr @_ZNK5boost10shared_ptrIN8QuantLib12SmileSectionEEptEv(ptr noundef nonnull align 8 dereferenceable(16) %baseSmileSection_)
  %7 = load double, ptr %strikeBase, align 8, !tbaa !14
  %call5 = call noundef double @_ZNK8QuantLib12SmileSection10volatilityEdNS_14VolatilityTypeEd(ptr noundef nonnull align 8 dereferenceable(72) %call, double noundef %7, i32 noundef 1, double noundef 0.000000e+00)
  store double %call5, ptr %volBase, align 8, !tbaa !14
  call void @llvm.lifetime.start.p0(i64 8, ptr %volTarg) #15
  %annuityScaling_6 = getelementptr inbounds nuw %"class.QuantLib::TenorSwaptionVTS::TenorSwaptionSmileSection", ptr %this1, i32 0, i32 6
  %8 = load double, ptr %annuityScaling_6, align 8, !tbaa !38
  %lambda_7 = getelementptr inbounds nuw %"class.QuantLib::TenorSwaptionVTS::TenorSwaptionSmileSection", ptr %this1, i32 0, i32 5
  %9 = load double, ptr %lambda_7, align 8, !tbaa !37
  %add8 = fadd double 1.000000e+00, %9
  %mul = fmul double %8, %add8
  %10 = load double, ptr %volBase, align 8, !tbaa !14
  %mul9 = fmul double %mul, %10
  store double %mul9, ptr %volTarg, align 8, !tbaa !14
  %11 = load double, ptr %volTarg, align 8, !tbaa !14
  call void @llvm.lifetime.end.p0(i64 8, ptr %volTarg) #15
  call void @llvm.lifetime.end.p0(i64 8, ptr %volBase) #15
  call void @llvm.lifetime.end.p0(i64 8, ptr %strikeBase) #15
  ret double %11
}