; Function Attrs: mustprogress uwtable
define noundef double @_ZNK8QuantLib16TenorSwaptionVTS25TenorSwaptionSmileSection14volatilityImplEd(ptr nocapture noundef nonnull readonly align 8 dereferenceable(128) %this, double noundef %strike) unnamed_addr #6 align 2 {
entry:
  %swapRateTarg_ = getelementptr inbounds nuw i8, ptr %this, i64 96
  %0 = load double, ptr %swapRateTarg_, align 8, !tbaa !96
  %lambda_ = getelementptr inbounds nuw i8, ptr %this, i64 112
  %1 = load double, ptr %lambda_, align 8, !tbaa !110
  %swapRateBase_ = getelementptr inbounds nuw i8, ptr %this, i64 88
  %2 = load double, ptr %swapRateBase_, align 8, !tbaa !92
  %annuityScaling_ = getelementptr inbounds nuw i8, ptr %this, i64 120
  %3 = load double, ptr %annuityScaling_, align 8, !tbaa !112
  %baseSmileSection_ = getelementptr inbounds nuw i8, ptr %this, i64 72
  %4 = load ptr, ptr %baseSmileSection_, align 8, !tbaa !45
  %cmp.not.i = icmp eq ptr %4, null
  br i1 %cmp.not.i, label %cond.false.i, label %_ZNK5boost10shared_ptrIN8QuantLib12SmileSectionEEptEv.exit, !prof !41

cond.false.i:                                     ; preds = %entry
  tail call void @_ZN5boost16assertion_failedEPKcS1_S1_l(ptr noundef nonnull @.str.7, ptr noundef nonnull @__PRETTY_FUNCTION__._ZNK5boost10shared_ptrIN8QuantLib12SmileSectionEEptEv, ptr noundef nonnull @.str.8, i64 noundef 784)
  %.pre.i = load ptr, ptr %baseSmileSection_, align 8, !tbaa !45
  br label %_ZNK5boost10shared_ptrIN8QuantLib12SmileSectionEEptEv.exit

_ZNK5boost10shared_ptrIN8QuantLib12SmileSectionEEptEv.exit: ; preds = %entry, %cond.false.i
  %5 = phi ptr [ %4, %entry ], [ %.pre.i, %cond.false.i ]
  %add = fadd double %1, 1.000000e+00
  %neg = fneg double %add
  %6 = tail call double @llvm.fmuladd.f64(double %neg, double %2, double %0)
  %sub = fsub double %strike, %6
  %div = fdiv double %sub, %add
  %div4 = fdiv double %div, %3
  %call5 = tail call noundef double @_ZNK8QuantLib12SmileSection10volatilityEdNS_14VolatilityTypeEd(ptr noundef nonnull align 8 dereferenceable(72) %5, double noundef %div4, i32 noundef 1, double noundef 0.000000e+00)
  %7 = load double, ptr %annuityScaling_, align 8, !tbaa !112
  %8 = load double, ptr %lambda_, align 8, !tbaa !110
  %add8 = fadd double %8, 1.000000e+00
  %mul = fmul double %7, %add8
  %mul9 = fmul double %call5, %mul
  ret double %mul9
}